target datalayout = "e-m:e-p270:32:32-p271:32:32-p272:64:64-i64:64-i128:128-f80:128-n8:16:32:64-S128"
target triple = "x86_64-pc-linux-gnu"

%struct.ssl_st = type { i32, i16, i16, ptr, ptr, ptr, ptr, ptr, i32, i32, ptr, ptr, i32, i32, ptr, ptr, ptr, ptr, ptr, ptr, ptr, ptr, i32, i32, [32 x i8], ptr, ptr, ptr, ptr, ptr, ptr, ptr, i64, %struct.crypto_ex_data_st, ptr, i32, i32, i32, i32, i16, ptr, i32, i64, ptr, ptr, ptr, ptr, ptr, ptr, i32, i32, ptr, ptr, i8, i8, i32 }
%struct.crypto_ex_data_st = type { ptr }
%struct.ssl3_state_st = type { [8 x i8], [8 x i8], [32 x i8], [32 x i8], i8, i8, %struct.ssl3_buffer_st, %struct.ssl3_buffer_st, %struct.ssl3_record_st, i8, i32, i32, i32, i32, ptr, ptr, %struct.env_md_ctx_st, %struct.env_md_ctx_st, i8, i32, [2 x i8], i32, i8, i8, ptr, ptr, ptr, %struct.anon, [64 x i8], i8, [64 x i8], i8, i32, i32, ptr, i64, ptr, i64, i8, [64 x i8] }
%struct.ssl3_buffer_st = type { ptr, i16, i16, i16 }
%struct.ssl3_record_st = type { i8, i16, ptr }
%struct.env_md_ctx_st = type { ptr, ptr, ptr, ptr }
%struct.anon = type { [64 x i8], i32, [64 x i8], i32, i64, i32, ptr, i32, i32, %union.anon, %union.anon.0, i8, i32, ptr, ptr, i64, ptr, i8, i8, i8, i8, i32, i8, ptr, i64, i8, ptr, i8, i8, i8, %struct.ssl_ecdh_ctx_st, ptr, i16 }
%union.anon = type { i32 }
%union.anon.0 = type { i16 }
%struct.ssl_ecdh_ctx_st = type { ptr, ptr }

@eccurves_default = internal constant [3 x i16] [i16 29, i16 23, i16 24], align 2

; Function Attrs: nounwind uwtable
define internal void @tls1_get_curvelist(ptr noundef %0, i32 noundef %1, ptr noundef %2, ptr noundef %3) #0 {
  %5 = alloca ptr, align 8
  %6 = alloca i32, align 4
  %7 = alloca ptr, align 8
  %8 = alloca ptr, align 8
  store ptr %0, ptr %5, align 8, !tbaa !69
  store i32 %1, ptr %6, align 4, !tbaa !58
  store ptr %2, ptr %7, align 8, !tbaa !73
  store ptr %3, ptr %8, align 8, !tbaa !66
  %9 = load i32, ptr %6, align 4, !tbaa !58
  %10 = icmp ne i32 %9, 0
  br i1 %10, label %11, label %26

11:                                               ; preds = %4
  %12 = load ptr, ptr %5, align 8, !tbaa !69
  %13 = getelementptr inbounds nuw %struct.ssl_st, ptr %12, i32 0, i32 14
  %14 = load ptr, ptr %13, align 8, !tbaa !75
  %15 = getelementptr inbounds nuw %struct.ssl3_state_st, ptr %14, i32 0, i32 27
  %16 = getelementptr inbounds nuw %struct.anon, ptr %15, i32 0, i32 23
  %17 = load ptr, ptr %16, align 8, !tbaa !76
  %18 = load ptr, ptr %7, align 8, !tbaa !73
  store ptr %17, ptr %18, align 8, !tbaa !57
  %19 = load ptr, ptr %5, align 8, !tbaa !69
  %20 = getelementptr inbounds nuw %struct.ssl_st, ptr %19, i32 0, i32 14
  %21 = load ptr, ptr %20, align 8, !tbaa !75
  %22 = getelementptr inbounds nuw %struct.ssl3_state_st, ptr %21, i32 0, i32 27
  %23 = getelementptr inbounds nuw %struct.anon, ptr %22, i32 0, i32 24
  %24 = load i64, ptr %23, align 8, !tbaa !90
  %25 = load ptr, ptr %8, align 8, !tbaa !66
  store i64 %24, ptr %25, align 8, !tbaa !56
  br label %41

26:                                               ; preds = %4
  %27 = load ptr, ptr %5, align 8, !tbaa !69
  %28 = getelementptr inbounds nuw %struct.ssl_st, ptr %27, i32 0, i32 43
  %29 = load ptr, ptr %28, align 8, !tbaa !91
  %30 = load ptr, ptr %7, align 8, !tbaa !73
  store ptr %29, ptr %30, align 8, !tbaa !57
  %31 = load ptr, ptr %5, align 8, !tbaa !69
  %32 = getelementptr inbounds nuw %struct.ssl_st, ptr %31, i32 0, i32 42
  %33 = load i64, ptr %32, align 8, !tbaa !92
  %34 = load ptr, ptr %8, align 8, !tbaa !66
  store i64 %33, ptr %34, align 8, !tbaa !56
  %35 = load ptr, ptr %7, align 8, !tbaa !73
  %36 = load ptr, ptr %35, align 8, !tbaa !57
  %37 = icmp ne ptr %36, null
  br i1 %37, label %41, label %38

38:                                               ; preds = %26
  %39 = load ptr, ptr %7, align 8, !tbaa !73
  store ptr @eccurves_default, ptr %39, align 8, !tbaa !57
  %40 = load ptr, ptr %8, align 8, !tbaa !66
  store i64 3, ptr %40, align 8, !tbaa !56
  br label %41

41:                                               ; preds = %11, %38, %26
  ret void
}

; Function Attrs: nounwind uwtable
define hidden i32 @tls1_get_shared_curve(ptr noundef %0, ptr noundef %1) #0 {
  %3 = alloca i32, align 4
  %4 = alloca ptr, align 8
  %5 = alloca ptr, align 8
  %6 = alloca ptr, align 8
  %7 = alloca ptr, align 8
  %8 = alloca ptr, align 8
  %9 = alloca ptr, align 8
  %10 = alloca i64, align 8
  %11 = alloca i64, align 8
  %12 = alloca i64, align 8
  %13 = alloca i64, align 8
  %14 = alloca i64, align 8
  %15 = alloca i64, align 8
  %16 = alloca i32, align 4
  store ptr %0, ptr %4, align 8, !tbaa !69
  store ptr %1, ptr %5, align 8, !tbaa !57
  call void @llvm.lifetime.start.p0(i64 8, ptr %6) #8
  call void @llvm.lifetime.start.p0(i64 8, ptr %7) #8
  call void @llvm.lifetime.start.p0(i64 8, ptr %8) #8
  call void @llvm.lifetime.start.p0(i64 8, ptr %9) #8
  call void @llvm.lifetime.start.p0(i64 8, ptr %10) #8
  call void @llvm.lifetime.start.p0(i64 8, ptr %11) #8
  call void @llvm.lifetime.start.p0(i64 8, ptr %12) #8
  call void @llvm.lifetime.start.p0(i64 8, ptr %13) #8
  call void @llvm.lifetime.start.p0(i64 8, ptr %14) #8
  call void @llvm.lifetime.start.p0(i64 8, ptr %15) #8
  %17 = load ptr, ptr %4, align 8, !tbaa !69
  %18 = getelementptr inbounds nuw %struct.ssl_st, ptr %17, i32 0, i32 54
  %19 = load i8, ptr %18, align 1
  %20 = lshr i8 %19, 1
  %21 = and i8 %20, 1
  %22 = zext i8 %21 to i32
  %23 = icmp eq i32 %22, 0
  br i1 %23, label %24, label %25

24:                                               ; preds = %2
  store i32 0, ptr %3, align 4
  store i32 1, ptr %16, align 4
  br label %85

25:                                               ; preds = %2
  %26 = load ptr, ptr %4, align 8, !tbaa !69
  call void @tls1_get_curvelist(ptr noundef %26, i32 noundef 0, ptr noundef %6, ptr noundef %10)
  %27 = load ptr, ptr %4, align 8, !tbaa !69
  call void @tls1_get_curvelist(ptr noundef %27, i32 noundef 1, ptr noundef %7, ptr noundef %11)
  %28 = load i64, ptr %11, align 8, !tbaa !56
  %29 = icmp eq i64 %28, 0
  br i1 %29, label %30, label %31

30:                                               ; preds = %25
  store i32 0, ptr %3, align 4
  store i32 1, ptr %16, align 4
  br label %85

31:                                               ; preds = %25
  %32 = load ptr, ptr %4, align 8, !tbaa !69
  %33 = getelementptr inbounds nuw %struct.ssl_st, ptr %32, i32 0, i32 35
  %34 = load i32, ptr %33, align 8, !tbaa !70
  %35 = zext i32 %34 to i64
  %36 = and i64 %35, 4194304
  %37 = icmp ne i64 %36, 0
  br i1 %37, label %38, label %43

38:                                               ; preds = %31
  %39 = load ptr, ptr %6, align 8, !tbaa !57
  store ptr %39, ptr %8, align 8, !tbaa !57
  %40 = load i64, ptr %10, align 8, !tbaa !56
  store i64 %40, ptr %12, align 8, !tbaa !56
  %41 = load ptr, ptr %7, align 8, !tbaa !57
  store ptr %41, ptr %9, align 8, !tbaa !57
  %42 = load i64, ptr %11, align 8, !tbaa !56
  store i64 %42, ptr %13, align 8, !tbaa !56
  br label %48

43:                                               ; preds = %31
  %44 = load ptr, ptr %7, align 8, !tbaa !57
  store ptr %44, ptr %8, align 8, !tbaa !57
  %45 = load i64, ptr %11, align 8, !tbaa !56
  store i64 %45, ptr %12, align 8, !tbaa !56
  %46 = load ptr, ptr %6, align 8, !tbaa !57
  store ptr %46, ptr %9, align 8, !tbaa !57
  %47 = load i64, ptr %10, align 8, !tbaa !56
  store i64 %47, ptr %13, align 8, !tbaa !56
  br label %48

48:                                               ; preds = %43, %38
  store i64 0, ptr %14, align 8, !tbaa !56
  br label %49

49:                                               ; preds = %81, %48
  %50 = load i64, ptr %14, align 8, !tbaa !56
  %51 = load i64, ptr %12, align 8, !tbaa !56
  %52 = icmp ult i64 %50, %51
  br i1 %52, label %53, label %84

53:                                               ; preds = %49
  store i64 0, ptr %15, align 8, !tbaa !56
  br label %54

54:                                               ; preds = %77, %53
  %55 = load i64, ptr %15, align 8, !tbaa !56
  %56 = load i64, ptr %13, align 8, !tbaa !56
  %57 = icmp ult i64 %55, %56
  br i1 %57, label %58, label %80

58:                                               ; preds = %54
  %59 = load ptr, ptr %8, align 8, !tbaa !57
  %60 = load i64, ptr %14, align 8, !tbaa !56
  %61 = getelementptr inbounds nuw i16, ptr %59, i64 %60
  %62 = load i16, ptr %61, align 2, !tbaa !62
  %63 = zext i16 %62 to i32
  %64 = load ptr, ptr %9, align 8, !tbaa !57
  %65 = load i64, ptr %15, align 8, !tbaa !56
  %66 = getelementptr inbounds nuw i16, ptr %64, i64 %65
  %67 = load i16, ptr %66, align 2, !tbaa !62
  %68 = zext i16 %67 to i32
  %69 = icmp eq i32 %63, %68
  br i1 %69, label %70, label %76

70:                                               ; preds = %58
  %71 = load ptr, ptr %8, align 8, !tbaa !57
  %72 = load i64, ptr %14, align 8, !tbaa !56
  %73 = getelementptr inbounds nuw i16, ptr %71, i64 %72
  %74 = load i16, ptr %73, align 2, !tbaa !62
  %75 = load ptr, ptr %5, align 8, !tbaa !57
  store i16 %74, ptr %75, align 2, !tbaa !62
  store i32 1, ptr %3, align 4
  store i32 1, ptr %16, align 4
  br label %85

76:                                               ; preds = %58
  br label %77

77:                                               ; preds = %76
  %78 = load i64, ptr %15, align 8, !tbaa !56
  %79 = add i64 %78, 1
  store i64 %79, ptr %15, align 8, !tbaa !56
  br label %54, !llvm.loop !71

80:                                               ; preds = %54
  br label %81

81:                                               ; preds = %80
  %82 = load i64, ptr %14, align 8, !tbaa !56
  %83 = add i64 %82, 1
  store i64 %83, ptr %14, align 8, !tbaa !56
  br label %49, !llvm.loop !72

84:                                               ; preds = %49
  store i32 0, ptr %3, align 4
  store i32 1, ptr %16, align 4
  br label %85

85:                                               ; preds = %84, %70, %30, %24
  call void @llvm.lifetime.end.p0(i64 8, ptr %15) #8
  call void @llvm.lifetime.end.p0(i64 8, ptr %14) #8
  call void @llvm.lifetime.end.p0(i64 8, ptr %13) #8
  call void @llvm.lifetime.end.p0(i64 8, ptr %12) #8
  call void @llvm.lifetime.end.p0(i64 8, ptr %11) #8
  call void @llvm.lifetime.end.p0(i64 8, ptr %10) #8
  call void @llvm.lifetime.end.p0(i64 8, ptr %9) #8
  call void @llvm.lifetime.end.p0(i64 8, ptr %8) #8
  call void @llvm.lifetime.end.p0(i64 8, ptr %7) #8
  call void @llvm.lifetime.end.p0(i64 8, ptr %6) #8
  %86 = load i32, ptr %3, align 4
  ret i32 %86
}