; Function Attrs: nofree norecurse nosync nounwind memory(read, argmem: readwrite, inaccessiblemem: none) uwtable
define hidden range(i32 0, 2) i32 @tls1_get_shared_curve(ptr noundef readonly captures(none) %0, ptr noundef writeonly captures(none) %1) local_unnamed_addr #3 {
  %3 = getelementptr inbounds nuw i8, ptr %0, i64 385
  %4 = load i8, ptr %3, align 1
  %5 = and i8 %4, 2
  %6 = icmp eq i8 %5, 0
  br i1 %6, label %.loopexit, label %tls1_get_curvelist.exit

tls1_get_curvelist.exit:                          ; preds = %2
  %7 = getelementptr inbounds nuw i8, ptr %0, i64 80
  %8 = load ptr, ptr %7, align 8, !tbaa !58
  %9 = getelementptr inbounds nuw i8, ptr %8, i64 528
  %10 = load i64, ptr %9, align 8, !tbaa !59
  %11 = icmp eq i64 %10, 0
  br i1 %11, label %.loopexit, label %12

12:                                               ; preds = %tls1_get_curvelist.exit
  %13 = getelementptr inbounds nuw i8, ptr %8, i64 520
  %14 = load ptr, ptr %13, align 8, !tbaa !73
  %15 = getelementptr inbounds nuw i8, ptr %0, i64 312
  %16 = load ptr, ptr %15, align 8, !tbaa !74
  %.not11.i = icmp eq ptr %16, null
  %spec.select30 = select i1 %.not11.i, ptr @eccurves_default, ptr %16
  %17 = getelementptr inbounds nuw i8, ptr %0, i64 304
  %18 = load i64, ptr %17, align 8, !tbaa !75
  %spec.select = select i1 %.not11.i, i64 3, i64 %18
  %19 = getelementptr inbounds nuw i8, ptr %0, i64 264
  %20 = load i32, ptr %19, align 8, !tbaa !76
  %21 = and i32 %20, 4194304
  %.not = icmp eq i32 %21, 0
  %.25 = select i1 %.not, i64 %10, i64 %spec.select
  %.26 = select i1 %.not, i64 %spec.select, i64 %10
  %.020.sroa.speculated = select i1 %.not, ptr %spec.select30, ptr %14
  %.021.sroa.speculated = select i1 %.not, ptr %14, ptr %spec.select30
  %.not33 = icmp eq i64 %.25, 0
  %.not34 = icmp eq i64 %.26, 0
  %or.cond = select i1 %.not33, i1 true, i1 %.not34
  br i1 %or.cond, label %.loopexit, label %.preheader.us

.preheader.us:                                    ; preds = %12, %._crit_edge.us
  %.01732.us = phi i64 [ %30, %._crit_edge.us ], [ 0, %12 ]
  %22 = getelementptr inbounds nuw i16, ptr %.021.sroa.speculated, i64 %.01732.us
  %23 = load i16, ptr %22, align 2, !tbaa !56
  br label %26

24:                                               ; preds = %26
  %25 = add nuw i64 %.031.us, 1
  %exitcond.not = icmp eq i64 %25, %.26
  br i1 %exitcond.not, label %._crit_edge.us, label %26, !llvm.loop !77

26:                                               ; preds = %.preheader.us, %24
  %.031.us = phi i64 [ 0, %.preheader.us ], [ %25, %24 ]
  %27 = getelementptr inbounds nuw i16, ptr %.020.sroa.speculated, i64 %.031.us
  %28 = load i16, ptr %27, align 2, !tbaa !56
  %29 = icmp eq i16 %23, %28
  br i1 %29, label %.split.us, label %24

._crit_edge.us:                                   ; preds = %24
  %30 = add nuw i64 %.01732.us, 1
  %exitcond37.not = icmp eq i64 %30, %.25
  br i1 %exitcond37.not, label %.loopexit, label %.preheader.us, !llvm.loop !78

.split.us:                                        ; preds = %26
  store i16 %23, ptr %1, align 2, !tbaa !56
  br label %.loopexit

.loopexit:                                        ; preds = %._crit_edge.us, %12, %tls1_get_curvelist.exit, %2, %.split.us
  %.022 = phi i32 [ 1, %.split.us ], [ 0, %2 ], [ 0, %tls1_get_curvelist.exit ], [ 0, %12 ], [ 0, %._crit_edge.us ]
  ret i32 %.022
}